target datalayout = "e-m:e-p270:32:32-p271:32:32-p272:64:64-i64:64-i128:128-f80:128-n8:16:32:64-S128"
target triple = "x86_64-pc-linux-gnu"

%struct._xmlNode = type { ptr, i32, ptr, ptr, ptr, ptr, ptr, ptr, ptr, ptr, ptr, ptr, ptr, ptr, i16, i16 }
%struct._xmlXPathObject = type { i32, ptr, i32, double, ptr, ptr, i32, ptr, i32 }
%struct._xmlNodeSet = type { i32, i32, ptr }

@.str.47 = private unnamed_addr constant [8 x i8] c"subject\00", align 1
@.str.48 = private unnamed_addr constant [20 x i8] c"hierarchicalSubject\00", align 1
@.str.49 = private unnamed_addr constant [12 x i8] c"RetouchInfo\00", align 1
@.str.50 = private unnamed_addr constant [16 x i8] c"ToneCurvePV2012\00", align 1
@.str.51 = private unnamed_addr constant [6 x i8] c"title\00", align 1
@.str.52 = private unnamed_addr constant [12 x i8] c"description\00", align 1
@.str.53 = private unnamed_addr constant [8 x i8] c"creator\00", align 1
@.str.54 = private unnamed_addr constant [10 x i8] c"publisher\00", align 1
@.str.55 = private unnamed_addr constant [7 x i8] c"rights\00", align 1

; Function Attrs: nounwind uwtable
define internal i32 @_has_list(ptr noundef %0) #0 {
  %2 = alloca ptr, align 8
  store ptr %0, ptr %2, align 8, !tbaa !10
  %3 = load ptr, ptr %2, align 8, !tbaa !10
  %4 = call i32 @strcmp(ptr noundef %3, ptr noundef @.str.47) #11
  %5 = icmp ne i32 %4, 0
  br i1 %5, label %6, label %39

6:                                                ; preds = %1
  %7 = load ptr, ptr %2, align 8, !tbaa !10
  %8 = call i32 @strcmp(ptr noundef %7, ptr noundef @.str.48) #11
  %9 = icmp ne i32 %8, 0
  br i1 %9, label %10, label %39

10:                                               ; preds = %6
  %11 = load ptr, ptr %2, align 8, !tbaa !10
  %12 = call i32 @strcmp(ptr noundef %11, ptr noundef @.str.49) #11
  %13 = icmp ne i32 %12, 0
  br i1 %13, label %14, label %39

14:                                               ; preds = %10
  %15 = load ptr, ptr %2, align 8, !tbaa !10
  %16 = call i32 @strcmp(ptr noundef %15, ptr noundef @.str.50) #11
  %17 = icmp ne i32 %16, 0
  br i1 %17, label %18, label %39

18:                                               ; preds = %14
  %19 = load ptr, ptr %2, align 8, !tbaa !10
  %20 = call i32 @strcmp(ptr noundef %19, ptr noundef @.str.51) #11
  %21 = icmp ne i32 %20, 0
  br i1 %21, label %22, label %39

22:                                               ; preds = %18
  %23 = load ptr, ptr %2, align 8, !tbaa !10
  %24 = call i32 @strcmp(ptr noundef %23, ptr noundef @.str.52) #11
  %25 = icmp ne i32 %24, 0
  br i1 %25, label %26, label %39

26:                                               ; preds = %22
  %27 = load ptr, ptr %2, align 8, !tbaa !10
  %28 = call i32 @strcmp(ptr noundef %27, ptr noundef @.str.53) #11
  %29 = icmp ne i32 %28, 0
  br i1 %29, label %30, label %39

30:                                               ; preds = %26
  %31 = load ptr, ptr %2, align 8, !tbaa !10
  %32 = call i32 @strcmp(ptr noundef %31, ptr noundef @.str.54) #11
  %33 = icmp ne i32 %32, 0
  br i1 %33, label %34, label %39

34:                                               ; preds = %30
  %35 = load ptr, ptr %2, align 8, !tbaa !10
  %36 = call i32 @strcmp(ptr noundef %35, ptr noundef @.str.55) #11
  %37 = icmp ne i32 %36, 0
  %38 = xor i1 %37, true
  br label %39

39:                                               ; preds = %34, %30, %26, %22, %18, %14, %10, %6, %1
  %40 = phi i1 [ true, %30 ], [ true, %26 ], [ true, %22 ], [ true, %18 ], [ true, %14 ], [ true, %10 ], [ true, %6 ], [ true, %1 ], [ %38, %34 ]
  %41 = zext i1 %40 to i32
  ret i32 %41
}

; Function Attrs: nounwind uwtable
define internal void @_handle_xpath(ptr noundef %0, ptr noundef %1, i32 noundef %2, ptr noundef %3, ptr noundef %4, ptr noundef %5) #0 {
  %7 = alloca ptr, align 8
  %8 = alloca ptr, align 8
  %9 = alloca i32, align 4
  %10 = alloca ptr, align 8
  %11 = alloca ptr, align 8
  %12 = alloca ptr, align 8
  %13 = alloca ptr, align 8
  %14 = alloca ptr, align 8
  %15 = alloca i32, align 4
  %16 = alloca i32, align 4
  %17 = alloca ptr, align 8
  %18 = alloca ptr, align 8
  %19 = alloca ptr, align 8
  store ptr %0, ptr %7, align 8, !tbaa !13
  store ptr %1, ptr %8, align 8, !tbaa !15
  store i32 %2, ptr %9, align 4, !tbaa !6
  store ptr %3, ptr %10, align 8, !tbaa !24
  store ptr %4, ptr %11, align 8, !tbaa !10
  store ptr %5, ptr %12, align 8, !tbaa !196
  call void @llvm.lifetime.start.p0(i64 8, ptr %13) #10
  %20 = load ptr, ptr %11, align 8, !tbaa !10
  %21 = load ptr, ptr %10, align 8, !tbaa !24
  %22 = call ptr @xmlXPathEvalExpression(ptr noundef %20, ptr noundef %21)
  store ptr %22, ptr %13, align 8, !tbaa !26
  %23 = load ptr, ptr %13, align 8, !tbaa !26
  %24 = icmp ne ptr %23, null
  br i1 %24, label %25, label %107

25:                                               ; preds = %6
  call void @llvm.lifetime.start.p0(i64 8, ptr %14) #10
  %26 = load ptr, ptr %13, align 8, !tbaa !26
  %27 = getelementptr inbounds nuw %struct._xmlXPathObject, ptr %26, i32 0, i32 1
  %28 = load ptr, ptr %27, align 8, !tbaa !28
  store ptr %28, ptr %14, align 8, !tbaa !32
  call void @llvm.lifetime.start.p0(i64 4, ptr %15) #10
  %29 = load ptr, ptr %14, align 8, !tbaa !32
  %30 = getelementptr inbounds nuw %struct._xmlNodeSet, ptr %29, i32 0, i32 0
  %31 = load i32, ptr %30, align 8, !tbaa !33
  store i32 %31, ptr %15, align 4, !tbaa !6
  call void @llvm.lifetime.start.p0(i64 4, ptr %16) #10
  store i32 0, ptr %16, align 4, !tbaa !6
  br label %32

32:                                               ; preds = %102, %25
  %33 = load i32, ptr %16, align 4, !tbaa !6
  %34 = load i32, ptr %15, align 4, !tbaa !6
  %35 = icmp slt i32 %33, %34
  br i1 %35, label %37, label %36

36:                                               ; preds = %32
  call void @llvm.lifetime.end.p0(i64 4, ptr %16) #10
  br label %105

37:                                               ; preds = %32
  call void @llvm.lifetime.start.p0(i64 8, ptr %17) #10
  %38 = load ptr, ptr %14, align 8, !tbaa !32
  %39 = getelementptr inbounds nuw %struct._xmlNodeSet, ptr %38, i32 0, i32 2
  %40 = load ptr, ptr %39, align 8, !tbaa !36
  %41 = load i32, ptr %16, align 4, !tbaa !6
  %42 = sext i32 %41 to i64
  %43 = getelementptr inbounds ptr, ptr %40, i64 %42
  %44 = load ptr, ptr %43, align 8, !tbaa !17
  store ptr %44, ptr %17, align 8, !tbaa !17
  %45 = load ptr, ptr %17, align 8, !tbaa !17
  %46 = getelementptr inbounds nuw %struct._xmlNode, ptr %45, i32 0, i32 2
  %47 = load ptr, ptr %46, align 8, !tbaa !19
  %48 = call i32 @_has_list(ptr noundef %47)
  %49 = icmp ne i32 %48, 0
  br i1 %49, label %50, label %87

50:                                               ; preds = %37
  call void @llvm.lifetime.start.p0(i64 8, ptr %18) #10
  %51 = load ptr, ptr %17, align 8, !tbaa !17
  %52 = getelementptr inbounds nuw %struct._xmlNode, ptr %51, i32 0, i32 3
  %53 = load ptr, ptr %52, align 8, !tbaa !37
  store ptr %53, ptr %18, align 8, !tbaa !17
  %54 = load ptr, ptr %18, align 8, !tbaa !17
  %55 = icmp ne ptr %54, null
  br i1 %55, label %56, label %60

56:                                               ; preds = %50
  %57 = load ptr, ptr %18, align 8, !tbaa !17
  %58 = getelementptr inbounds nuw %struct._xmlNode, ptr %57, i32 0, i32 6
  %59 = load ptr, ptr %58, align 8, !tbaa !198
  store ptr %59, ptr %18, align 8, !tbaa !17
  br label %60

60:                                               ; preds = %56, %50
  %61 = load ptr, ptr %18, align 8, !tbaa !17
  %62 = icmp ne ptr %61, null
  br i1 %62, label %63, label %67

63:                                               ; preds = %60
  %64 = load ptr, ptr %18, align 8, !tbaa !17
  %65 = getelementptr inbounds nuw %struct._xmlNode, ptr %64, i32 0, i32 3
  %66 = load ptr, ptr %65, align 8, !tbaa !37
  store ptr %66, ptr %18, align 8, !tbaa !17
  br label %67

67:                                               ; preds = %63, %60
  %68 = load ptr, ptr %18, align 8, !tbaa !17
  %69 = icmp ne ptr %68, null
  br i1 %69, label %70, label %74

70:                                               ; preds = %67
  %71 = load ptr, ptr %18, align 8, !tbaa !17
  %72 = getelementptr inbounds nuw %struct._xmlNode, ptr %71, i32 0, i32 6
  %73 = load ptr, ptr %72, align 8, !tbaa !198
  store ptr %73, ptr %18, align 8, !tbaa !17
  br label %74

74:                                               ; preds = %70, %67
  %75 = load ptr, ptr %18, align 8, !tbaa !17
  %76 = icmp ne ptr %75, null
  br i1 %76, label %77, label %86

77:                                               ; preds = %74
  %78 = load ptr, ptr %7, align 8, !tbaa !13
  %79 = load ptr, ptr %8, align 8, !tbaa !15
  %80 = load i32, ptr %9, align 4, !tbaa !6
  %81 = load ptr, ptr %17, align 8, !tbaa !17
  %82 = getelementptr inbounds nuw %struct._xmlNode, ptr %81, i32 0, i32 2
  %83 = load ptr, ptr %82, align 8, !tbaa !19
  %84 = load ptr, ptr %18, align 8, !tbaa !17
  %85 = load ptr, ptr %12, align 8, !tbaa !196
  call void @_lrop(ptr noundef %78, ptr noundef %79, i32 noundef %80, ptr noundef %83, ptr noundef null, ptr noundef %84, ptr noundef %85)
  br label %86

86:                                               ; preds = %77, %74
  call void @llvm.lifetime.end.p0(i64 8, ptr %18) #10
  br label %101

87:                                               ; preds = %37
  call void @llvm.lifetime.start.p0(i64 8, ptr %19) #10
  %88 = load ptr, ptr %8, align 8, !tbaa !15
  %89 = load ptr, ptr %17, align 8, !tbaa !17
  %90 = getelementptr inbounds nuw %struct._xmlNode, ptr %89, i32 0, i32 3
  %91 = load ptr, ptr %90, align 8, !tbaa !37
  %92 = call ptr @xmlNodeListGetString(ptr noundef %88, ptr noundef %91, i32 noundef 1)
  store ptr %92, ptr %19, align 8, !tbaa !10
  %93 = load ptr, ptr %7, align 8, !tbaa !13
  %94 = load ptr, ptr %8, align 8, !tbaa !15
  %95 = load i32, ptr %9, align 4, !tbaa !6
  %96 = load ptr, ptr %17, align 8, !tbaa !17
  %97 = getelementptr inbounds nuw %struct._xmlNode, ptr %96, i32 0, i32 2
  %98 = load ptr, ptr %97, align 8, !tbaa !19
  %99 = load ptr, ptr %19, align 8, !tbaa !10
  %100 = load ptr, ptr %12, align 8, !tbaa !196
  call void @_lrop(ptr noundef %93, ptr noundef %94, i32 noundef %95, ptr noundef %98, ptr noundef %99, ptr noundef null, ptr noundef %100)
  call void @llvm.lifetime.end.p0(i64 8, ptr %19) #10
  br label %101

101:                                              ; preds = %87, %86
  call void @llvm.lifetime.end.p0(i64 8, ptr %17) #10
  br label %102

102:                                              ; preds = %101
  %103 = load i32, ptr %16, align 4, !tbaa !6
  %104 = add nsw i32 %103, 1
  store i32 %104, ptr %16, align 4, !tbaa !6
  br label %32

105:                                              ; preds = %36
  %106 = load ptr, ptr %13, align 8, !tbaa !26
  call void @xmlXPathFreeObject(ptr noundef %106)
  call void @llvm.lifetime.end.p0(i64 4, ptr %15) #10
  call void @llvm.lifetime.end.p0(i64 8, ptr %14) #10
  br label %107

107:                                              ; preds = %105, %6
  call void @llvm.lifetime.end.p0(i64 8, ptr %13) #10
  ret void
}