; Function Attrs: nounwind uwtable
define internal fastcc void @_handle_xpath(ptr noundef %0, ptr noundef nonnull %1, i32 noundef %2, ptr noundef nonnull %3, ptr noundef nonnull %4, ptr noundef nonnull %5) unnamed_addr #0 {
  %7 = tail call ptr @xmlXPathEvalExpression(ptr noundef nonnull %4, ptr noundef nonnull %3) #11
  %.not = icmp eq ptr %7, null
  br i1 %.not, label %53, label %8

8:                                                ; preds = %6
  %9 = getelementptr inbounds nuw i8, ptr %7, i64 8
  %10 = load ptr, ptr %9, align 8, !tbaa !19
  %11 = load i32, ptr %10, align 8, !tbaa !23
  %12 = icmp sgt i32 %11, 0
  br i1 %12, label %.lr.ph, label %._crit_edge

.lr.ph:                                           ; preds = %8
  %13 = getelementptr inbounds nuw i8, ptr %10, i64 8
  %wide.trip.count = zext nneg i32 %11 to i64
  br label %14

._crit_edge:                                      ; preds = %.thread49, %8
  tail call void @xmlXPathFreeObject(ptr noundef nonnull %7) #11
  br label %53

14:                                               ; preds = %.lr.ph, %.thread49
  %indvars.iv = phi i64 [ 0, %.lr.ph ], [ %indvars.iv.next, %.thread49 ]
  %15 = load ptr, ptr %13, align 8, !tbaa !26
  %16 = getelementptr inbounds nuw ptr, ptr %15, i64 %indvars.iv
  %17 = load ptr, ptr %16, align 8, !tbaa !27
  %18 = getelementptr inbounds nuw i8, ptr %17, i64 16
  %19 = load ptr, ptr %18, align 8, !tbaa !10
  %20 = tail call i32 @strcmp(ptr noundef nonnull readonly dereferenceable(1) %19, ptr noundef nonnull dereferenceable(8) @.str.47) #12
  %.not.i = icmp eq i32 %20, 0
  br i1 %.not.i, label %_has_list.exit.thread, label %21

21:                                               ; preds = %14
  %22 = tail call i32 @strcmp(ptr noundef nonnull readonly dereferenceable(1) %19, ptr noundef nonnull dereferenceable(20) @.str.48) #12
  %.not9.i = icmp eq i32 %22, 0
  br i1 %.not9.i, label %_has_list.exit.thread, label %23

23:                                               ; preds = %21
  %24 = tail call i32 @strcmp(ptr noundef nonnull readonly dereferenceable(1) %19, ptr noundef nonnull dereferenceable(12) @.str.49) #12
  %.not10.i = icmp eq i32 %24, 0
  br i1 %.not10.i, label %_has_list.exit.thread, label %25

25:                                               ; preds = %23
  %26 = tail call i32 @strcmp(ptr noundef nonnull readonly dereferenceable(1) %19, ptr noundef nonnull dereferenceable(16) @.str.50) #12
  %.not11.i = icmp eq i32 %26, 0
  br i1 %.not11.i, label %_has_list.exit.thread, label %27

27:                                               ; preds = %25
  %28 = tail call i32 @strcmp(ptr noundef nonnull readonly dereferenceable(1) %19, ptr noundef nonnull dereferenceable(6) @.str.51) #12
  %.not12.i = icmp eq i32 %28, 0
  br i1 %.not12.i, label %_has_list.exit.thread, label %29

29:                                               ; preds = %27
  %30 = tail call i32 @strcmp(ptr noundef nonnull readonly dereferenceable(1) %19, ptr noundef nonnull dereferenceable(12) @.str.52) #12
  %.not13.i = icmp eq i32 %30, 0
  br i1 %.not13.i, label %_has_list.exit.thread, label %31

31:                                               ; preds = %29
  %32 = tail call i32 @strcmp(ptr noundef nonnull readonly dereferenceable(1) %19, ptr noundef nonnull dereferenceable(8) @.str.53) #12
  %.not14.i = icmp eq i32 %32, 0
  br i1 %.not14.i, label %_has_list.exit.thread, label %33

33:                                               ; preds = %31
  %34 = tail call i32 @strcmp(ptr noundef nonnull readonly dereferenceable(1) %19, ptr noundef nonnull dereferenceable(10) @.str.54) #12
  %.not15.i = icmp eq i32 %34, 0
  br i1 %.not15.i, label %_has_list.exit.thread, label %_has_list.exit

_has_list.exit:                                   ; preds = %33
  %35 = tail call i32 @strcmp(ptr noundef nonnull readonly dereferenceable(1) %19, ptr noundef nonnull dereferenceable(7) @.str.55) #12
  %.not16.i.not = icmp eq i32 %35, 0
  br i1 %.not16.i.not, label %_has_list.exit.thread, label %48

_has_list.exit.thread:                            ; preds = %14, %21, %23, %25, %27, %29, %31, %33, %_has_list.exit
  %36 = getelementptr inbounds nuw i8, ptr %17, i64 24
  %37 = load ptr, ptr %36, align 8, !tbaa !28
  %.not38 = icmp eq ptr %37, null
  br i1 %.not38, label %.thread49, label %38

38:                                               ; preds = %_has_list.exit.thread
  %39 = getelementptr inbounds nuw i8, ptr %37, i64 48
  %40 = load ptr, ptr %39, align 8, !tbaa !177
  %.not39 = icmp eq ptr %40, null
  br i1 %.not39, label %.thread49, label %41

41:                                               ; preds = %38
  %42 = getelementptr inbounds nuw i8, ptr %40, i64 24
  %43 = load ptr, ptr %42, align 8, !tbaa !28
  %.not40 = icmp eq ptr %43, null
  br i1 %.not40, label %.thread49, label %44

44:                                               ; preds = %41
  %45 = getelementptr inbounds nuw i8, ptr %43, i64 48
  %46 = load ptr, ptr %45, align 8, !tbaa !177
  %.not41 = icmp eq ptr %46, null
  br i1 %.not41, label %.thread49, label %47

47:                                               ; preds = %44
  tail call fastcc void @_lrop(ptr noundef %0, ptr noundef %1, i32 noundef %2, ptr noundef nonnull %19, ptr noundef null, ptr noundef nonnull %46, ptr noundef %5)
  br label %.thread49

48:                                               ; preds = %_has_list.exit
  %49 = getelementptr inbounds nuw i8, ptr %17, i64 24
  %50 = load ptr, ptr %49, align 8, !tbaa !28
  %51 = tail call ptr @xmlNodeListGetString(ptr noundef nonnull %1, ptr noundef %50, i32 noundef 1) #11
  %52 = load ptr, ptr %18, align 8, !tbaa !10
  tail call fastcc void @_lrop(ptr noundef %0, ptr noundef %1, i32 noundef %2, ptr noundef %52, ptr noundef %51, ptr noundef null, ptr noundef %5)
  br label %.thread49

.thread49:                                        ; preds = %_has_list.exit.thread, %38, %41, %44, %47, %48
  %indvars.iv.next = add nuw nsw i64 %indvars.iv, 1
  %exitcond.not = icmp eq i64 %indvars.iv.next, %wide.trip.count
  br i1 %exitcond.not, label %._crit_edge, label %14

53:                                               ; preds = %._crit_edge, %6
  ret void
}